Certificate:
    Data:
        Version: 3 (0x2)
        Serial Number: 2 (0x2)
        Signature Algorithm: sha1WithRSAEncryption
        Issuer: C=BE, ST=LI, L=Tessenderlo, O=Futech, OU=changeme, CN=OpenVPN-CA/name=changeme/emailAddress=mail@host.domain
        Validity
            Not Before: Mar  7 15:14:26 2024 GMT
            Not After : Mar  5 15:14:26 2034 GMT
        Subject: C=BE, ST=LI, L=Tessenderlo, O=Futech, OU=changeme, CN=ilucharge2/name=changeme/emailAddress=mail@host.domain
        Subject Public Key Info:
            Public Key Algorithm: rsaEncryption
                RSA Public-Key: (4096 bit)
                Modulus:
                    00:c6:e2:49:92:b4:00:ef:ab:f9:ad:8c:4d:70:20:
                    b5:82:6e:24:7f:d9:c9:02:37:48:4b:a1:38:92:47:
                    0e:0e:e3:cd:e6:1e:d8:e3:43:00:55:1f:53:cf:ad:
                    c3:1a:23:36:7c:b1:9b:d8:1f:bf:df:2d:c4:50:0d:
                    dc:b2:00:55:aa:88:89:1f:a6:5d:25:22:33:ad:6a:
                    6c:22:fe:d7:d0:17:a1:a2:e0:a0:db:7f:b8:0b:a9:
                    b8:55:a3:57:8a:ce:dd:ef:c6:68:73:70:11:18:65:
                    fd:e6:25:06:c3:b5:fd:7d:89:9e:73:56:b7:d9:ff:
                    b8:10:e9:ec:31:84:43:03:da:93:41:8f:1e:bb:95:
                    80:05:10:ad:8d:1f:fa:6a:e1:d4:a2:c4:f1:50:a8:
                    42:cf:dc:38:e6:da:84:18:a2:64:71:5f:d8:99:31:
                    62:29:c7:4c:5f:f3:70:6c:6d:ea:6b:38:9a:b4:bb:
                    e4:be:11:07:15:40:c3:27:6b:b1:c9:74:db:6d:48:
                    8b:4f:8f:90:c8:4a:a3:1f:4b:32:78:0a:be:42:2d:
                    7a:8e:80:19:95:df:2f:d9:6e:6b:a1:82:b0:ed:3f:
                    47:0e:d4:e6:c0:81:81:d6:aa:03:b1:d0:36:af:b3:
                    5e:00:13:1d:0b:75:bd:a4:90:16:39:f4:63:03:6c:
                    f4:db:23:65:3e:77:4e:d4:c8:8d:81:f8:5c:48:47:
                    7b:26:5d:ff:d5:28:ff:c1:2e:2b:ab:87:b5:2f:56:
                    a5:4a:9d:b5:a8:06:c0:8f:bf:dc:80:36:78:0d:44:
                    b1:99:be:f1:95:ee:95:6e:7e:0a:b7:89:9f:09:8d:
                    ba:29:5a:ce:9a:a0:17:a4:25:7b:b1:a8:69:63:14:
                    9c:03:c5:dd:78:2f:6a:fa:0a:42:18:d5:b1:3d:7d:
                    90:df:22:38:98:fe:91:12:19:ac:ba:81:7a:b2:a6:
                    e0:bc:e1:b3:5e:2f:50:09:1f:1e:82:2c:d1:87:f3:
                    31:99:70:0b:6b:d3:54:46:bb:09:6e:2d:a7:a4:7d:
                    3b:00:5f:f7:7b:e4:f8:09:49:92:de:49:ee:fa:89:
                    d0:7a:88:0c:c6:1d:30:bd:73:83:54:8e:99:76:81:
                    2f:1d:4f:6e:38:8b:7d:7a:6d:aa:b4:90:6e:d1:ac:
                    c4:98:51:2f:3f:39:2b:b1:dc:b9:37:51:ee:51:a1:
                    9f:42:0c:6c:fb:69:d1:49:52:2c:19:c4:f3:94:5c:
                    66:eb:6c:3a:e4:56:5e:e4:f6:0b:34:03:1e:0f:0e:
                    43:00:e0:76:56:ae:9f:67:1b:59:45:a8:65:ad:f3:
                    67:0d:97:f7:38:cc:66:b5:1c:8b:9e:44:cf:2e:2c:
                    3d:19:e7
                Exponent: 65537 (0x10001)
        X509v3 extensions:
            X509v3 Basic Constraints: 
                CA:FALSE
            Netscape Comment: 
                Easy-RSA Generated Certificate
            X509v3 Subject Key Identifier: 
                AE:8F:C4:2A:3F:DF:19:16:78:1D:43:CC:AB:27:F3:B4:AE:93:C6:D1
            X509v3 Authority Key Identifier: 
                keyid:29:8B:D3:03:F5:0C:30:38:FB:51:F1:1E:90:18:ED:2E:E7:6E:54:74
                DirName:/C=BE/ST=LI/L=Tessenderlo/O=Futech/OU=changeme/CN=OpenVPN-CA/name=changeme/emailAddress=mail@host.domain
                serial:0C:81:AA:3D:07:44:42:1A:87:6F:F5:3E:22:DA:E7:22:D8:19:72:EA

            X509v3 Extended Key Usage: 
                TLS Web Client Authentication
            X509v3 Key Usage: 
                Digital Signature
    Signature Algorithm: sha1WithRSAEncryption
         38:94:fa:df:07:49:43:45:4c:0a:7e:52:c5:90:90:b6:b9:c0:
         9e:3f:ca:25:74:59:fe:d2:18:f2:89:42:d4:74:06:80:2d:5a:
         ca:d2:2b:4e:97:1d:4d:7f:8c:6b:7f:64:02:44:81:6d:f9:b7:
         ed:ce:bf:2d:b7:8f:c2:7e:10:49:ea:48:57:42:07:bb:87:61:
         25:c8:52:25:4b:46:55:42:e7:41:72:a4:56:37:30:72:39:0c:
         82:7c:e2:2b:93:59:06:9b:31:e7:37:96:45:ed:1b:a6:ec:93:
         60:12:9c:80:e5:4d:c2:df:45:9d:c8:85:70:f3:1b:ba:97:bc:
         23:50:a1:7e:11:98:93:2f:c1:77:84:b5:e1:e9:c4:28:2b:93:
         40:8f:97:2c:fd:15:41:5e:79:2a:b2:f8:43:5c:6a:1a:ac:99:
         a7:ed:70:66:3a:a9:0c:a5:68:88:b8:7c:50:ce:85:10:d5:ea:
         77:aa:1e:21:12:ad:01:a5:e1:5b:d9:e0:05:2e:99:29:23:bb:
         f9:70:5f:60:66:54:6b:1c:1a:66:e8:8d:d8:e1:de:a6:31:ac:
         c6:18:2c:96:ad:fe:0f:24:c7:dc:4f:40:65:d2:dc:67:f5:f4:
         4d:4f:5f:7e:14:6b:20:ba:1a:1b:64:14:c6:f7:78:e0:ff:8f:
         49:11:32:58:9b:be:06:da:f9:24:28:da:10:c3:aa:c6:ce:b9:
         ef:76:7a:0b:5d:6a:0e:d0:6f:f1:11:f5:3d:65:e9:56:d8:5b:
         0b:cf:a1:40:5c:0c:67:f6:98:b5:15:7f:e4:47:09:1d:a3:89:
         20:73:55:7f:3a:ad:ca:4a:0a:e6:48:82:ae:22:c6:fc:21:cc:
         ab:ff:b9:57:fe:7a:dd:1f:f7:02:b5:8d:d0:85:6f:2d:1d:f5:
         35:68:e5:f5:39:6a:2a:76:ac:db:ca:87:7d:44:4a:22:9a:7d:
         a0:ec:1f:3c:02:bd:e1:46:b7:97:fb:cc:6c:77:9e:e6:62:e4:
         95:90:71:db:cc:c0:f0:bd:ca:d6:8c:c2:e5:34:2a:38:e2:2a:
         a5:98:b9:62:8b:3b:4f:9f:f3:64:ff:d6:22:79:8a:77:b0:00:
         be:a4:fa:8d:83:70:6d:fc:ac:50:4b:df:f3:79:62:c6:32:2b:
         f0:c4:06:e3:73:83:86:21:f7:04:4c:ea:bd:3d:23:8e:0f:05:
         b2:b2:d9:0a:1b:b0:f6:92:a9:f4:45:f0:72:e7:d5:cb:4c:cf:
         57:82:93:ec:ff:ca:a0:f5:e5:b5:8a:98:2e:b6:8b:af:e2:28:
         42:f0:e8:cb:64:0f:4e:01:bc:e9:84:5f:1d:99:f2:68:30:1b:
         82:f4:79:61:54:d5:c7:77
-----BEGIN CERTIFICATE-----
MIIHGDCCBQCgAwIBAgIBAjANBgkqhkiG9w0BAQUFADCBnTELMAkGA1UEBhMCQkUx
CzAJBgNVBAgTAkxJMRQwEgYDVQQHEwtUZXNzZW5kZXJsbzEPMA0GA1UEChMGRnV0
ZWNoMREwDwYDVQQLEwhjaGFuZ2VtZTETMBEGA1UEAxMKT3BlblZQTi1DQTERMA8G
A1UEKRMIY2hhbmdlbWUxHzAdBgkqhkiG9w0BCQEWEG1haWxAaG9zdC5kb21haW4w
HhcNMjQwMzA3MTUxNDI2WhcNMzQwMzA1MTUxNDI2WjCBnTELMAkGA1UEBhMCQkUx
CzAJBgNVBAgTAkxJMRQwEgYDVQQHEwtUZXNzZW5kZXJsbzEPMA0GA1UEChMGRnV0
ZWNoMREwDwYDVQQLEwhjaGFuZ2VtZTETMBEGA1UEAxMKaWx1Y2hhcmdlMjERMA8G
A1UEKRMIY2hhbmdlbWUxHzAdBgkqhkiG9w0BCQEWEG1haWxAaG9zdC5kb21haW4w
ggIiMA0GCSqGSIb3DQEBAQUAA4ICDwAwggIKAoICAQDG4kmStADvq/mtjE1wILWC
biR/2ckCN0hLoTiSRw4O483mHtjjQwBVH1PPrcMaIzZ8sZvYH7/fLcRQDdyyAFWq
iIkfpl0lIjOtamwi/tfQF6Gi4KDbf7gLqbhVo1eKzt3vxmhzcBEYZf3mJQbDtf19
iZ5zVrfZ/7gQ6ewxhEMD2pNBjx67lYAFEK2NH/pq4dSixPFQqELP3Djm2oQYomRx
X9iZMWIpx0xf83BsbeprOJq0u+S+EQcVQMMna7HJdNttSItPj5DISqMfSzJ4Cr5C
LXqOgBmV3y/ZbmuhgrDtP0cO1ObAgYHWqgOx0Davs14AEx0Ldb2kkBY59GMDbPTb
I2U+d07UyI2B+FxIR3smXf/VKP/BLiurh7UvVqVKnbWoBsCPv9yANngNRLGZvvGV
7pVufgq3iZ8JjbopWs6aoBekJXuxqGljFJwDxd14L2r6CkIY1bE9fZDfIjiY/pES
Gay6gXqypuC84bNeL1AJHx6CLNGH8zGZcAtr01RGuwluLaekfTsAX/d75PgJSZLe
Se76idB6iAzGHTC9c4NUjpl2gS8dT244i316baq0kG7RrMSYUS8/OSux3Lk3Ue5R
oZ9CDGz7adFJUiwZxPOUXGbrbDrkVl7k9gs0Ax4PDkMA4HZWrp9nG1lFqGWt82cN
l/c4zGa1HIueRM8uLD0Z5wIDAQABo4IBXzCCAVswCQYDVR0TBAIwADAtBglghkgB
hvhCAQ0EIBYeRWFzeS1SU0EgR2VuZXJhdGVkIENlcnRpZmljYXRlMB0GA1UdDgQW
BBSuj8QqP98ZFngdQ8yrJ/O0rpPG0TCB3QYDVR0jBIHVMIHSgBQpi9MD9QwwOPtR
8R6QGO0u525UdKGBo6SBoDCBnTELMAkGA1UEBhMCQkUxCzAJBgNVBAgTAkxJMRQw
EgYDVQQHEwtUZXNzZW5kZXJsbzEPMA0GA1UEChMGRnV0ZWNoMREwDwYDVQQLEwhj
aGFuZ2VtZTETMBEGA1UEAxMKT3BlblZQTi1DQTERMA8GA1UEKRMIY2hhbmdlbWUx
HzAdBgkqhkiG9w0BCQEWEG1haWxAaG9zdC5kb21haW6CFAyBqj0HREIah2/1PiLa
5yLYGXLqMBMGA1UdJQQMMAoGCCsGAQUFBwMCMAsGA1UdDwQEAwIHgDANBgkqhkiG
9w0BAQUFAAOCAgEAOJT63wdJQ0VMCn5SxZCQtrnAnj/KJXRZ/tIY8olC1HQGgC1a
ytIrTpcdTX+Ma39kAkSBbfm37c6/LbePwn4QSepIV0IHu4dhJchSJUtGVULnQXKk
VjcwcjkMgnziK5NZBpsx5zeWRe0bpuyTYBKcgOVNwt9FnciFcPMbupe8I1ChfhGY
ky/Bd4S14enEKCuTQI+XLP0VQV55KrL4Q1xqGqyZp+1wZjqpDKVoiLh8UM6FENXq
d6oeIRKtAaXhW9ngBS6ZKSO7+XBfYGZUaxwaZuiN2OHepjGsxhgslq3+DyTH3E9A
ZdLcZ/X0TU9ffhRrILoaG2QUxvd44P+PSREyWJu+Btr5JCjaEMOqxs6573Z6C11q
DtBv8RH1PWXpVthbC8+hQFwMZ/aYtRV/5EcJHaOJIHNVfzqtykoK5kiCriLG/CHM
q/+5V/563R/3ArWN0IVvLR31NWjl9TlqKnas28qHfURKIpp9oOwfPAK94Ua3l/vM
bHee5mLklZBx28zA8L3K1ozC5TQqOOIqpZi5Yos7T5/zZP/WInmKd7AAvqT6jYNw
bfysUEvf83lixjIr8MQG43ODhiH3BEzqvT0jjg8FsrLZChuw9pKp9EXwcufVy0zP
V4KT7P/KoPXltYqYLraLr+IoQvDoy2QPTgG86YRfHZnyaDAbgvR5YVTVx3c=
-----END CERTIFICATE-----
