Certificate:
    Data:
        Version: 3 (0x2)
        Serial Number: 1 (0x1)
        Signature Algorithm: sha256WithRSAEncryption
        Issuer: DC=de, DC=pionix, O=Pionix GmbH, OU=Pionix Root CA, CN=Pionix Root CA
        Validity
            Not Before: May 18 20:29:02 2022 GMT
            Not After : May 17 20:29:02 2032 GMT
        Subject: DC=de, DC=pionix, O=Pionix GmbH, OU=Pionix Root CA, CN=Pionix Root CA
        Subject Public Key Info:
            Public Key Algorithm: rsaEncryption
                RSA Public-Key: (4096 bit)
                Modulus:
                    00:a5:0a:21:09:03:9a:ab:b5:c6:45:01:d4:fc:3f:
                    82:72:3b:01:1c:48:7d:a7:b7:23:4a:80:b8:a0:1d:
                    d9:3c:1a:31:43:2c:0b:c2:44:03:a4:9a:11:a5:59:
                    f8:dc:1f:22:ef:96:fa:a5:b6:0e:72:43:64:a9:93:
                    c8:e6:72:55:a7:85:06:a1:f6:f4:b9:96:8f:de:94:
                    ba:72:e8:6d:b0:d0:77:dc:6a:11:ce:94:77:d2:e7:
                    35:73:3f:e5:31:0f:cb:00:0e:3b:50:de:8d:cd:02:
                    f9:83:25:df:75:32:82:01:4e:23:a7:46:c5:72:2c:
                    03:10:7e:c2:83:e3:31:05:9e:c8:70:5f:7c:b6:02:
                    22:2d:20:1d:a9:45:46:3a:8c:b3:e3:c3:4c:1d:50:
                    4d:43:2d:5f:ba:f2:c7:e3:83:c0:f0:29:8c:4d:3e:
                    5f:9e:a1:3b:fd:93:64:67:71:9a:b8:b0:19:42:3d:
                    52:a6:ba:b4:42:e9:4a:64:55:2c:83:c8:1d:f3:87:
                    b5:31:e2:bf:ad:59:ee:7b:07:18:18:24:19:e5:7a:
                    0a:05:b6:bf:55:20:b8:7c:3f:cb:f6:40:69:75:de:
                    9a:62:7d:52:d9:79:6b:4c:e0:bd:be:9a:e7:d2:e6:
                    51:18:e7:6f:7e:c6:c1:ca:fc:04:3d:6d:bb:85:03:
                    54:a3:1b:ec:9e:46:c2:6b:70:81:81:ce:96:96:eb:
                    bb:11:66:83:73:43:47:f7:fc:41:3f:6e:d7:b4:fd:
                    74:ba:29:d3:e2:6b:7c:f2:0a:1b:64:6c:b2:b4:82:
                    5c:00:0b:5c:e7:c5:76:d5:74:46:32:69:8e:ea:78:
                    a9:c3:82:94:f0:0a:7b:de:5e:b9:6b:d9:45:ae:13:
                    07:6b:9d:01:b6:b2:27:86:47:48:6f:b5:cb:d6:c7:
                    90:a2:2f:09:84:d3:82:f7:5f:a9:cc:2f:50:fb:c7:
                    c2:23:57:45:bd:79:8f:2d:56:9c:0b:05:a4:4f:ca:
                    1f:18:de:e6:7b:41:67:ea:1a:a6:0a:21:aa:8d:dc:
                    33:47:e8:cf:2a:1b:27:d2:54:94:a2:ab:a4:99:29:
                    b3:1d:a5:19:96:f5:f3:ae:95:24:7b:de:69:64:83:
                    0c:3d:b5:cc:2e:94:28:cf:ba:49:6a:63:08:b1:db:
                    88:dd:91:5b:2c:5f:af:d0:28:92:87:7f:90:3c:07:
                    a9:b8:4d:34:ee:41:bf:e1:3d:2c:3b:64:bb:eb:38:
                    44:ba:24:2e:94:14:c5:5b:88:01:75:31:5c:a3:70:
                    7c:ea:26:3d:86:bf:45:1b:40:87:33:be:f9:97:c6:
                    30:17:05:e9:22:a7:d9:a1:a8:32:a7:0b:27:90:80:
                    21:37:95
                Exponent: 65537 (0x10001)
        X509v3 extensions:
            X509v3 Key Usage: critical
                Certificate Sign, CRL Sign
            X509v3 Basic Constraints: critical
                CA:TRUE
            X509v3 Subject Key Identifier: 
                28:5D:99:08:73:57:29:B1:57:9F:F6:59:85:88:5E:C4:22:F0:68:DF
            X509v3 Authority Key Identifier: 
                keyid:28:5D:99:08:73:57:29:B1:57:9F:F6:59:85:88:5E:C4:22:F0:68:DF

    Signature Algorithm: sha256WithRSAEncryption
         52:2a:7c:a7:35:14:97:4c:ca:7b:be:cf:49:73:26:9e:33:23:
         5c:1c:cd:44:c7:42:dd:7e:f6:ad:35:c3:fb:a1:37:f1:69:16:
         84:2d:30:d9:35:7e:7d:24:c4:41:92:6b:55:cd:f4:75:67:64:
         12:5d:f1:51:be:d1:08:1a:e7:8a:04:57:2e:09:be:16:8f:d0:
         fa:f1:26:aa:dd:4e:2c:0f:6f:17:e8:41:22:af:3d:24:2b:34:
         6f:69:3c:9d:9e:57:ba:f6:2f:d6:84:09:55:e6:12:6d:b0:a6:
         db:c9:c5:91:05:6d:aa:ed:d7:9b:bf:3a:0f:22:f3:78:b1:8b:
         5f:12:13:c4:2b:26:33:57:22:25:a6:dd:17:c8:60:8c:60:f6:
         d0:97:0b:1f:c7:27:e1:44:cd:e6:de:ac:a4:3b:6d:fa:03:c0:
         89:49:d1:55:e7:ab:05:b2:f7:46:d3:05:ea:88:9d:e3:52:51:
         ea:aa:f0:01:4c:62:fb:4b:9b:24:6f:f9:8f:6f:96:68:6d:61:
         a8:e5:03:f8:bd:3d:88:0e:4c:55:1d:ec:d2:fa:e8:8f:62:41:
         de:4a:2f:1f:25:b1:43:3b:ce:11:11:b7:c9:a2:e8:97:4d:94:
         84:30:6d:72:6b:ed:c0:23:1e:d7:c1:3f:28:9d:35:01:bf:5c:
         0f:c5:82:01:c0:23:c6:54:1b:5f:cc:26:c1:c0:24:4a:3d:49:
         94:58:eb:9e:4c:ec:9c:57:05:96:43:a5:39:87:d5:55:99:79:
         68:b4:f3:6a:1b:09:ab:76:c8:6b:a7:25:a9:df:fd:d9:37:8d:
         65:d0:5d:b0:eb:a3:be:8f:d3:e1:e6:e7:59:8e:cc:75:b1:6b:
         47:a4:bf:0d:8f:a1:d4:b7:8d:92:5c:6b:50:52:81:02:a8:96:
         f3:61:50:b6:7d:6d:43:18:40:df:4a:3b:a4:af:39:64:5e:b2:
         11:5d:2f:2b:c6:55:bb:8d:05:ad:e9:7c:9d:e6:71:7d:e0:67:
         3e:85:0d:78:89:42:51:bc:26:ed:95:1c:b3:54:b0:bf:c7:39:
         69:f9:64:94:46:84:3b:96:57:c8:e9:30:6d:60:f1:16:2a:57:
         d2:af:6b:87:47:2b:33:c3:97:73:e3:93:4f:0d:4c:ac:02:55:
         86:cb:bf:3a:f1:a0:38:d2:7f:0d:6a:ca:99:f3:29:a4:ae:b7:
         35:ff:94:cc:c6:55:ca:82:b5:51:f8:bb:a5:93:0f:55:78:59:
         ec:e8:37:67:83:b4:d5:7a:2c:2a:85:3d:fd:9f:80:6d:6b:63:
         93:e2:90:6d:b3:f5:2e:df:7a:b5:80:1e:56:46:57:3a:d0:50:
         7e:a9:2f:52:48:d1:3c:7e
-----BEGIN CERTIFICATE-----
MIIFxjCCA66gAwIBAgIBATANBgkqhkiG9w0BAQsFADB0MRIwEAYKCZImiZPyLGQB
GRYCZGUxFjAUBgoJkiaJk/IsZAEZFgZwaW9uaXgxFDASBgNVBAoMC1Bpb25peCBH
bWJIMRcwFQYDVQQLDA5QaW9uaXggUm9vdCBDQTEXMBUGA1UEAwwOUGlvbml4IFJv
b3QgQ0EwHhcNMjIwNTE4MjAyOTAyWhcNMzIwNTE3MjAyOTAyWjB0MRIwEAYKCZIm
iZPyLGQBGRYCZGUxFjAUBgoJkiaJk/IsZAEZFgZwaW9uaXgxFDASBgNVBAoMC1Bp
b25peCBHbWJIMRcwFQYDVQQLDA5QaW9uaXggUm9vdCBDQTEXMBUGA1UEAwwOUGlv
bml4IFJvb3QgQ0EwggIiMA0GCSqGSIb3DQEBAQUAA4ICDwAwggIKAoICAQClCiEJ
A5qrtcZFAdT8P4JyOwEcSH2ntyNKgLigHdk8GjFDLAvCRAOkmhGlWfjcHyLvlvql
tg5yQ2Spk8jmclWnhQah9vS5lo/elLpy6G2w0HfcahHOlHfS5zVzP+UxD8sADjtQ
3o3NAvmDJd91MoIBTiOnRsVyLAMQfsKD4zEFnshwX3y2AiItIB2pRUY6jLPjw0wd
UE1DLV+68sfjg8DwKYxNPl+eoTv9k2RncZq4sBlCPVKmurRC6UpkVSyDyB3zh7Ux
4r+tWe57BxgYJBnlegoFtr9VILh8P8v2QGl13ppifVLZeWtM4L2+mufS5lEY529+
xsHK/AQ9bbuFA1SjG+yeRsJrcIGBzpaW67sRZoNzQ0f3/EE/bte0/XS6KdPia3zy
ChtkbLK0glwAC1znxXbVdEYyaY7qeKnDgpTwCnveXrlr2UWuEwdrnQG2sieGR0hv
tcvWx5CiLwmE04L3X6nML1D7x8IjV0W9eY8tVpwLBaRPyh8Y3uZ7QWfqGqYKIaqN
3DNH6M8qGyfSVJSiq6SZKbMdpRmW9fOulSR73mlkgww9tcwulCjPuklqYwix24jd
kVssX6/QKJKHf5A8B6m4TTTuQb/hPSw7ZLvrOES6JC6UFMVbiAF1MVyjcHzqJj2G
v0UbQIczvvmXxjAXBekip9mhqDKnCyeQgCE3lQIDAQABo2MwYTAOBgNVHQ8BAf8E
BAMCAQYwDwYDVR0TAQH/BAUwAwEB/zAdBgNVHQ4EFgQUKF2ZCHNXKbFXn/ZZhYhe
xCLwaN8wHwYDVR0jBBgwFoAUKF2ZCHNXKbFXn/ZZhYhexCLwaN8wDQYJKoZIhvcN
AQELBQADggIBAFIqfKc1FJdMynu+z0lzJp4zI1wczUTHQt1+9q01w/uhN/FpFoQt
MNk1fn0kxEGSa1XN9HVnZBJd8VG+0Qga54oEVy4JvhaP0PrxJqrdTiwPbxfoQSKv
PSQrNG9pPJ2eV7r2L9aECVXmEm2wptvJxZEFbart15u/Og8i83ixi18SE8QrJjNX
IiWm3RfIYIxg9tCXCx/HJ+FEzeberKQ7bfoDwIlJ0VXnqwWy90bTBeqIneNSUeqq
8AFMYvtLmyRv+Y9vlmhtYajlA/i9PYgOTFUd7NL66I9iQd5KLx8lsUM7zhERt8mi
6JdNlIQwbXJr7cAjHtfBPyidNQG/XA/FggHAI8ZUG1/MJsHAJEo9SZRY655M7JxX
BZZDpTmH1VWZeWi082obCat2yGunJanf/dk3jWXQXbDro76P0+Hm51mOzHWxa0ek
vw2PodS3jZJca1BSgQKolvNhULZ9bUMYQN9KO6SvOWReshFdLyvGVbuNBa3pfJ3m
cX3gZz6FDXiJQlG8Ju2VHLNUsL/HOWn5ZJRGhDuWV8jpMG1g8RYqV9Kva4dHKzPD
l3Pjk08NTKwCVYbLvzrxoDjSfw1qypnzKaSutzX/lMzGVcqCtVH4u6WTD1V4Wezo
N2eDtNV6LCqFPf2fgG1rY5PikG2z9S7ferWAHlZGVzrQUH6pL1JI0Tx+
-----END CERTIFICATE-----
Certificate:
    Data:
        Version: 3 (0x2)
        Serial Number: 2 (0x2)
        Signature Algorithm: sha256WithRSAEncryption
        Issuer: DC=de, DC=pionix, O=Pionix GmbH, OU=Pionix Root CA, CN=Pionix Root CA
        Validity
            Not Before: May 18 20:36:03 2022 GMT
            Not After : May 17 20:36:03 2032 GMT
        Subject: DC=de, DC=pionix, O=Pionix GmbH, OU=Pionix Signing CA, CN=Pionix Signing CA
        Subject Public Key Info:
            Public Key Algorithm: rsaEncryption
                RSA Public-Key: (4096 bit)
                Modulus:
                    00:c5:51:53:5b:97:07:25:b3:82:57:8d:92:3e:88:
                    98:1e:07:42:83:97:31:86:c8:41:5d:96:08:05:8d:
                    bd:00:43:2d:4a:4e:a5:2f:bc:8f:cf:1b:08:0a:0c:
                    07:e6:94:1a:9a:98:1a:7d:bd:79:e2:44:df:ea:d3:
                    4c:ac:a8:e5:0c:2a:bb:18:75:89:76:e3:6b:4b:00:
                    13:37:d1:e0:43:c8:c4:d3:86:df:41:fa:0a:fb:40:
                    ef:c0:fa:6f:57:c1:3a:6c:2f:58:12:f5:3d:c3:37:
                    d6:1a:f6:3a:70:7a:ca:0f:b0:8b:41:01:c5:4b:bd:
                    71:88:8d:18:2e:e0:c9:de:33:59:b7:4a:10:fd:a8:
                    83:f1:fa:51:81:43:7e:0f:bf:27:56:53:7c:28:4a:
                    c4:73:d8:90:e8:9c:f7:23:fa:8f:6b:85:4c:af:d8:
                    22:a5:be:27:d7:27:0a:b9:de:54:52:e8:b5:1f:df:
                    6a:23:0c:fc:48:d1:a3:4c:1c:ac:44:d8:cb:f8:54:
                    90:f4:4a:d8:aa:d6:62:75:6f:7e:1d:33:01:8c:66:
                    5d:c6:39:55:d7:c3:eb:8e:1c:6b:93:67:30:d2:5f:
                    ec:8f:a9:ff:66:9d:ac:b7:e1:f2:e1:fe:eb:0a:7c:
                    0e:92:a1:c2:38:55:35:94:c5:48:14:41:14:cd:6b:
                    c3:87:69:13:46:ef:e4:40:71:15:5d:5f:a5:04:3f:
                    ef:e6:d6:bd:2c:6b:8d:1f:4f:89:69:e5:f3:d0:24:
                    40:f3:6b:82:45:ab:08:63:41:16:ff:2f:f2:74:0d:
                    d3:dc:a0:6e:0a:45:44:95:65:cb:ce:ab:81:e4:5a:
                    50:3b:bb:a0:10:fc:0e:f4:67:21:17:50:b1:c6:1b:
                    51:81:74:67:d7:9c:1c:62:d4:f6:b8:99:e0:77:6e:
                    76:0b:b6:f3:f4:5a:d6:d9:36:8e:8f:d8:fb:b2:df:
                    cd:bd:eb:f7:89:b9:d4:36:6d:d3:b9:00:80:89:cd:
                    e0:af:cc:d0:22:8f:28:ff:37:ef:d9:68:25:dd:1c:
                    15:74:4b:a1:8d:03:50:78:c1:d5:d2:f6:d9:b7:5b:
                    cf:11:ce:b5:b7:8f:c3:99:48:1a:b7:45:1b:eb:e2:
                    74:d3:28:02:54:ee:30:23:7e:70:74:99:36:8d:10:
                    7b:1e:3a:41:29:3b:92:6f:0b:c6:c3:3d:8f:0e:64:
                    bb:3b:67:bb:52:b8:73:51:ef:3f:89:f1:3e:a4:a3:
                    bc:84:6c:8f:9e:57:30:31:64:5b:69:45:4e:cb:5a:
                    01:a6:3a:f7:c9:c1:e7:51:ab:c1:fd:e9:45:0b:4a:
                    0a:af:7b:db:e5:5e:cf:c3:60:bd:34:4d:39:b5:4c:
                    27:b7:69
                Exponent: 65537 (0x10001)
        X509v3 extensions:
            X509v3 Key Usage: critical
                Certificate Sign, CRL Sign
            X509v3 Basic Constraints: critical
                CA:TRUE, pathlen:0
            X509v3 Subject Key Identifier: 
                89:2D:85:D7:EE:23:C0:FB:3B:B0:48:E3:70:93:BF:2F:F6:EB:F5:46
            X509v3 Authority Key Identifier: 
                keyid:28:5D:99:08:73:57:29:B1:57:9F:F6:59:85:88:5E:C4:22:F0:68:DF

    Signature Algorithm: sha256WithRSAEncryption
         3e:dd:29:3d:ae:7e:e0:1c:c3:d5:82:c2:a7:92:98:c9:a3:06:
         9d:cf:38:6b:05:1a:40:d9:89:6a:62:ba:b9:a6:35:0e:a1:9d:
         ba:46:24:f6:04:80:8e:ca:f1:c8:cc:ea:fb:48:86:69:60:ce:
         f1:c2:e8:2f:9b:ca:c4:01:fa:1a:a8:c7:34:99:ab:e3:b4:57:
         55:1c:9b:6b:0d:9b:dc:89:f0:28:8b:9a:cf:75:29:61:9d:10:
         69:8d:6c:07:86:2e:8f:dc:d3:a2:b8:d4:81:f7:9d:9b:b9:ee:
         8e:c1:f0:45:05:1d:b4:7b:f2:c3:81:f7:33:20:7f:fb:2b:8f:
         cd:e6:29:97:36:23:84:18:51:87:84:16:1a:d4:bf:ec:5c:dd:
         e0:8a:53:01:f9:95:54:2a:47:ac:ab:e1:4c:f7:ca:ac:26:93:
         3d:bb:82:05:0a:61:f6:bb:30:84:ac:d9:87:43:a7:57:73:e5:
         2f:6f:74:ea:fe:5d:41:62:e1:22:1c:0a:00:10:42:19:64:6f:
         54:6f:5d:fc:7e:26:16:76:be:02:bd:42:56:df:26:f9:21:4b:
         ca:c9:51:a7:e0:c1:e3:e1:57:ed:a2:8a:fc:c6:0a:39:5b:00:
         5b:d6:59:12:9e:3f:0d:14:4a:b0:50:23:c3:09:0b:45:b6:e9:
         af:21:f7:e0:40:98:e9:75:90:62:e4:08:cb:9b:20:c9:39:b9:
         0b:87:4f:00:94:7d:3d:c8:48:a2:c6:0d:17:c5:52:1a:1a:9f:
         18:25:6b:8b:ad:46:57:6d:ac:1d:be:75:0d:71:f3:17:64:e9:
         e4:66:84:9b:39:d7:17:af:ea:7c:55:a6:d8:29:46:71:aa:3b:
         04:32:47:d2:42:29:6b:a5:23:ba:42:e9:05:23:41:cf:f6:5a:
         66:80:82:1a:d8:45:63:0d:f6:a4:72:91:2b:c6:a4:cb:e5:5e:
         bc:af:ba:ad:3b:d1:40:9d:37:b3:70:54:91:f0:5a:84:4e:79:
         74:23:99:c4:7c:36:d2:f9:8e:84:f5:c8:f5:7a:d7:e0:64:86:
         ff:08:20:d2:00:b9:a8:e9:d5:cd:94:df:34:8b:64:3c:29:a5:
         17:9b:77:d6:65:0e:67:07:69:38:87:ce:90:e0:b3:dd:94:98:
         86:68:79:28:1d:d2:94:c1:aa:c5:76:61:c2:80:64:33:44:59:
         8b:32:5d:2a:9c:9c:89:9c:ad:0f:ea:de:87:92:a1:fe:4f:23:
         73:f1:d4:bd:97:67:97:d4:94:34:8c:e3:a0:2f:87:3d:fd:ff:
         86:c6:76:8c:f7:b0:86:c4:b2:91:f3:13:10:71:26:a5:9c:a5:
         92:fc:79:d5:2c:eb:74:25
-----BEGIN CERTIFICATE-----
MIIFzzCCA7egAwIBAgIBAjANBgkqhkiG9w0BAQsFADB0MRIwEAYKCZImiZPyLGQB
GRYCZGUxFjAUBgoJkiaJk/IsZAEZFgZwaW9uaXgxFDASBgNVBAoMC1Bpb25peCBH
bWJIMRcwFQYDVQQLDA5QaW9uaXggUm9vdCBDQTEXMBUGA1UEAwwOUGlvbml4IFJv
b3QgQ0EwHhcNMjIwNTE4MjAzNjAzWhcNMzIwNTE3MjAzNjAzWjB6MRIwEAYKCZIm
iZPyLGQBGRYCZGUxFjAUBgoJkiaJk/IsZAEZFgZwaW9uaXgxFDASBgNVBAoMC1Bp
b25peCBHbWJIMRowGAYDVQQLDBFQaW9uaXggU2lnbmluZyBDQTEaMBgGA1UEAwwR
UGlvbml4IFNpZ25pbmcgQ0EwggIiMA0GCSqGSIb3DQEBAQUAA4ICDwAwggIKAoIC
AQDFUVNblwcls4JXjZI+iJgeB0KDlzGGyEFdlggFjb0AQy1KTqUvvI/PGwgKDAfm
lBqamBp9vXniRN/q00ysqOUMKrsYdYl242tLABM30eBDyMTTht9B+gr7QO/A+m9X
wTpsL1gS9T3DN9Ya9jpwesoPsItBAcVLvXGIjRgu4MneM1m3ShD9qIPx+lGBQ34P
vydWU3woSsRz2JDonPcj+o9rhUyv2CKlvifXJwq53lRS6LUf32ojDPxI0aNMHKxE
2Mv4VJD0Stiq1mJ1b34dMwGMZl3GOVXXw+uOHGuTZzDSX+yPqf9mnay34fLh/usK
fA6SocI4VTWUxUgUQRTNa8OHaRNG7+RAcRVdX6UEP+/m1r0sa40fT4lp5fPQJEDz
a4JFqwhjQRb/L/J0DdPcoG4KRUSVZcvOq4HkWlA7u6AQ/A70ZyEXULHGG1GBdGfX
nBxi1Pa4meB3bnYLtvP0WtbZNo6P2Puy38296/eJudQ2bdO5AICJzeCvzNAijyj/
N+/ZaCXdHBV0S6GNA1B4wdXS9tm3W88RzrW3j8OZSBq3RRvr4nTTKAJU7jAjfnB0
mTaNEHseOkEpO5JvC8bDPY8OZLs7Z7tSuHNR7z+J8T6ko7yEbI+eVzAxZFtpRU7L
WgGmOvfJwedRq8H96UULSgqve9vlXs/DYL00TTm1TCe3aQIDAQABo2YwZDAOBgNV
HQ8BAf8EBAMCAQYwEgYDVR0TAQH/BAgwBgEB/wIBADAdBgNVHQ4EFgQUiS2F1+4j
wPs7sEjjcJO/L/br9UYwHwYDVR0jBBgwFoAUKF2ZCHNXKbFXn/ZZhYhexCLwaN8w
DQYJKoZIhvcNAQELBQADggIBAD7dKT2ufuAcw9WCwqeSmMmjBp3POGsFGkDZiWpi
urmmNQ6hnbpGJPYEgI7K8cjM6vtIhmlgzvHC6C+bysQB+hqoxzSZq+O0V1Ucm2sN
m9yJ8CiLms91KWGdEGmNbAeGLo/c06K41IH3nZu57o7B8EUFHbR78sOB9zMgf/sr
j83mKZc2I4QYUYeEFhrUv+xc3eCKUwH5lVQqR6yr4Uz3yqwmkz27ggUKYfa7MISs
2YdDp1dz5S9vdOr+XUFi4SIcCgAQQhlkb1RvXfx+JhZ2vgK9QlbfJvkhS8rJUafg
wePhV+2iivzGCjlbAFvWWRKePw0USrBQI8MJC0W26a8h9+BAmOl1kGLkCMubIMk5
uQuHTwCUfT3ISKLGDRfFUhoanxgla4utRldtrB2+dQ1x8xdk6eRmhJs51xev6nxV
ptgpRnGqOwQyR9JCKWulI7pC6QUjQc/2WmaAghrYRWMN9qRykSvGpMvlXryvuq07
0UCdN7NwVJHwWoROeXQjmcR8NtL5joT1yPV61+Bkhv8IINIAuajp1c2U3zSLZDwp
pRebd9ZlDmcHaTiHzpDgs92UmIZoeSgd0pTBqsV2YcKAZDNEWYsyXSqcnImcrQ/q
3oeSof5PI3Px1L2XZ5fUlDSM46Avhz39/4bGdoz3sIbEspHzExBxJqWcpZL8edUs
63Ql
-----END CERTIFICATE-----
